; ModuleID = '4/62.c'
source_filename = "4/62.c"
target datalayout = "e-m:e-p270:32:32-p271:32:32-p272:64:64-i64:64-f80:128-n8:16:32:64-S128"
target triple = "x86_64-pc-linux-gnu"

@.str = private unnamed_addr constant [6 x i8] c"%d %d\00", align 1
@.str.1 = private unnamed_addr constant [3 x i8] c"%d\00", align 1
@.str.2 = private unnamed_addr constant [4 x i8] c"%d\0A\00", align 1

; Function Attrs: noinline nounwind uwtable
define dso_local i32 @main(i32 %0, i8** %1) #0 {
  %3 = alloca i32, align 4
  %4 = alloca i32, align 4
  %5 = alloca i8**, align 8
  %6 = alloca i32, align 4
  %7 = alloca i32, align 4
  %8 = alloca i32*, align 8
  %9 = alloca i32, align 4
  %10 = alloca i32, align 4
  %11 = alloca i32, align 4
  store i32 0, i32* %3, align 4
  store i32 %0, i32* %4, align 4
  store i8** %1, i8*** %5, align 8
  %12 = call noalias i8* @malloc(i64 44000) #3
  %13 = bitcast i8* %12 to i32*
  store i32* %13, i32** %8, align 8
  %14 = call i32 (i8*, ...) @__isoc99_scanf(i8* getelementptr inbounds ([6 x i8], [6 x i8]* @.str, i64 0, i64 0), i32* %6, i32* %7)
  store i32 0, i32* %9, align 4
  br label %15

15:                                               ; preds = %27, %2
  %16 = load i32, i32* %9, align 4
  %17 = load i32, i32* %6, align 4
  %18 = load i32, i32* %7, align 4
  %19 = mul nsw i32 %17, %18
  %20 = icmp slt i32 %16, %19
  br i1 %20, label %21, label %30

21:                                               ; preds = %15
  %22 = load i32*, i32** %8, align 8
  %23 = load i32, i32* %9, align 4
  %24 = sext i32 %23 to i64
  %25 = getelementptr inbounds i32, i32* %22, i64 %24
  %26 = call i32 (i8*, ...) @__isoc99_scanf(i8* getelementptr inbounds ([3 x i8], [3 x i8]* @.str.1, i64 0, i64 0), i32* %25)
  br label %27

27:                                               ; preds = %21
  %28 = load i32, i32* %9, align 4
  %29 = add nsw i32 %28, 1
  store i32 %29, i32* %9, align 4
  br label %15

30:                                               ; preds = %15
  store i32 0, i32* %9, align 4
  br label %31

31:                                               ; preds = %63, %30
  %32 = load i32, i32* %9, align 4
  %33 = load i32, i32* %7, align 4
  %34 = icmp slt i32 %32, %33
  br i1 %34, label %35, label %66

35:                                               ; preds = %31
  %36 = load i32, i32* %9, align 4
  store i32 %36, i32* %11, align 4
  store i32 0, i32* %10, align 4
  br label %37

37:                                               ; preds = %46, %35
  %38 = load i32, i32* %11, align 4
  %39 = icmp sge i32 %38, 0
  br i1 %39, label %40, label %44

40:                                               ; preds = %37
  %41 = load i32, i32* %10, align 4
  %42 = load i32, i32* %6, align 4
  %43 = icmp slt i32 %41, %42
  br label %44

44:                                               ; preds = %40, %37
  %45 = phi i1 [ false, %37 ], [ %43, %40 ]
  br i1 %45, label %46, label %62

46:                                               ; preds = %44
  %47 = load i32*, i32** %8, align 8
  %48 = load i32, i32* %11, align 4
  %49 = sext i32 %48 to i64
  %50 = getelementptr inbounds i32, i32* %47, i64 %49
  %51 = load i32, i32* %10, align 4
  %52 = load i32, i32* %7, align 4
  %53 = mul nsw i32 %51, %52
  %54 = sext i32 %53 to i64
  %55 = getelementptr inbounds i32, i32* %50, i64 %54
  %56 = load i32, i32* %55, align 4
  %57 = call i32 (i8*, ...) @printf(i8* getelementptr inbounds ([4 x i8], [4 x i8]* @.str.2, i64 0, i64 0), i32 %56)
  %58 = load i32, i32* %11, align 4
  %59 = add nsw i32 %58, -1
  store i32 %59, i32* %11, align 4
  %60 = load i32, i32* %10, align 4
  %61 = add nsw i32 %60, 1
  store i32 %61, i32* %10, align 4
  br label %37

62:                                               ; preds = %44
  br label %63

63:                                               ; preds = %62
  %64 = load i32, i32* %9, align 4
  %65 = add nsw i32 %64, 1
  store i32 %65, i32* %9, align 4
  br label %31

66:                                               ; preds = %31
  store i32 1, i32* %9, align 4
  br label %67

67:                                               ; preds = %105, %66
  %68 = load i32, i32* %9, align 4
  %69 = load i32, i32* %6, align 4
  %70 = icmp sle i32 %68, %69
  br i1 %70, label %71, label %108

71:                                               ; preds = %67
  %72 = load i32, i32* %9, align 4
  store i32 %72, i32* %11, align 4
  store i32 0, i32* %10, align 4
  br label %73

73:                                               ; preds = %83, %71
  %74 = load i32, i32* %11, align 4
  %75 = load i32, i32* %6, align 4
  %76 = icmp slt i32 %74, %75
  br i1 %76, label %77, label %81

77:                                               ; preds = %73
  %78 = load i32, i32* %10, align 4
  %79 = load i32, i32* %7, align 4
  %80 = icmp slt i32 %78, %79
  br label %81

81:                                               ; preds = %77, %73
  %82 = phi i1 [ false, %73 ], [ %80, %77 ]
  br i1 %82, label %83, label %104

83:                                               ; preds = %81
  %84 = load i32*, i32** %8, align 8
  %85 = load i32, i32* %7, align 4
  %86 = sext i32 %85 to i64
  %87 = getelementptr inbounds i32, i32* %84, i64 %86
  %88 = getelementptr inbounds i32, i32* %87, i64 -1
  %89 = load i32, i32* %10, align 4
  %90 = sext i32 %89 to i64
  %91 = sub i64 0, %90
  %92 = getelementptr inbounds i32, i32* %88, i64 %91
  %93 = load i32, i32* %11, align 4
  %94 = load i32, i32* %7, align 4
  %95 = mul nsw i32 %93, %94
  %96 = sext i32 %95 to i64
  %97 = getelementptr inbounds i32, i32* %92, i64 %96
  %98 = load i32, i32* %97, align 4
  %99 = call i32 (i8*, ...) @printf(i8* getelementptr inbounds ([4 x i8], [4 x i8]* @.str.2, i64 0, i64 0), i32 %98)
  %100 = load i32, i32* %10, align 4
  %101 = add nsw i32 %100, 1
  store i32 %101, i32* %10, align 4
  %102 = load i32, i32* %11, align 4
  %103 = add nsw i32 %102, 1
  store i32 %103, i32* %11, align 4
  br label %73

104:                                              ; preds = %81
  br label %105

105:                                              ; preds = %104
  %106 = load i32, i32* %9, align 4
  %107 = add nsw i32 %106, 1
  store i32 %107, i32* %9, align 4
  br label %67

108:                                              ; preds = %67
  %109 = load i32, i32* %3, align 4
  ret i32 %109
}

; Function Attrs: nounwind
declare dso_local noalias i8* @malloc(i64) #1

declare dso_local i32 @__isoc99_scanf(i8*, ...) #2

declare dso_local i32 @printf(i8*, ...) #2


!llvm.module.flags = !{!0}
!llvm.ident = !{!1}

!0 = !{i32 1, !"wchar_size", i32 4}
!1 = !{!"clang version 10.0.0-4ubuntu1 "}
